; Function Attrs: mustprogress nofree norecurse nosync nounwind willreturn memory(argmem: write) uwtable
define void @_ZN17IOPluginContainerC2Ev(ptr noundef nonnull writeonly align 8 captures(none) dereferenceable(72) initializes((0, 72)) %0) unnamed_addr #3 align 2 {
  tail call void @llvm.memset.p0.i64(ptr noundef nonnull align 8 dereferenceable(24) %0, i8 0, i64 24, i1 false)
  %2 = getelementptr inbounds nuw i8, ptr %0, i64 24
  store ptr @_ZN12QMapDataBase11shared_nullE, ptr %2, align 8
  %3 = getelementptr inbounds nuw i8, ptr %0, i64 32
  store ptr @_ZN12QMapDataBase11shared_nullE, ptr %3, align 8
  %4 = getelementptr inbounds nuw i8, ptr %0, i64 40
  store ptr @_ZN12QMapDataBase11shared_nullE, ptr %4, align 8
  %5 = getelementptr inbounds nuw i8, ptr %0, i64 48
  store ptr @_ZN12QMapDataBase11shared_nullE, ptr %5, align 8
  %6 = getelementptr inbounds nuw i8, ptr %0, i64 56
  store ptr @_ZN12QMapDataBase11shared_nullE, ptr %6, align 8
  %7 = getelementptr inbounds nuw i8, ptr %0, i64 64
  store ptr @_ZN12QMapDataBase11shared_nullE, ptr %7, align 8
  ret void
}